; Function Attrs: mustprogress nounwind uwtable
define internal void @_ZN12_GLOBAL__N_120GeneralizedHoughBaseD2Ev(ptr noundef nonnull align 8 dereferenceable(680) initializes((0, 8)) %0) unnamed_addr #7 align 2 personality ptr @__gxx_personality_v0 {
  store ptr getelementptr inbounds nuw inrange(-16, 32) (i8, ptr @_ZTVN12_GLOBAL__N_120GeneralizedHoughBaseE, i64 16), ptr %0, align 8, !tbaa !14
  %2 = getelementptr inbounds nuw i8, ptr %0, i64 656
  %3 = load ptr, ptr %2, align 8, !tbaa !159
  %.not.i.i.i = icmp eq ptr %3, null
  br i1 %.not.i.i.i, label %_ZNSt6vectorIN2cv3VecIiLi3EEESaIS2_EED2Ev.exit, label %4

4:                                                ; preds = %1
  tail call void @_ZdlPv(ptr noundef nonnull %3) #31
  br label %_ZNSt6vectorIN2cv3VecIiLi3EEESaIS2_EED2Ev.exit

_ZNSt6vectorIN2cv3VecIiLi3EEESaIS2_EED2Ev.exit:   ; preds = %1, %4
  %5 = getelementptr inbounds nuw i8, ptr %0, i64 632
  %6 = load ptr, ptr %5, align 8, !tbaa !160
  %.not.i.i.i1 = icmp eq ptr %6, null
  br i1 %.not.i.i.i1, label %_ZNSt6vectorIN2cv3VecIfLi4EEESaIS2_EED2Ev.exit, label %7

7:                                                ; preds = %_ZNSt6vectorIN2cv3VecIiLi3EEESaIS2_EED2Ev.exit
  tail call void @_ZdlPv(ptr noundef nonnull %6) #31
  br label %_ZNSt6vectorIN2cv3VecIfLi4EEESaIS2_EED2Ev.exit

_ZNSt6vectorIN2cv3VecIfLi4EEESaIS2_EED2Ev.exit:   ; preds = %_ZNSt6vectorIN2cv3VecIiLi3EEESaIS2_EED2Ev.exit, %7
  %8 = getelementptr inbounds nuw i8, ptr %0, i64 536
  tail call void @_ZN2cv3MatD1Ev(ptr noundef nonnull align 8 dereferenceable(96) %8) #32
  %9 = getelementptr inbounds nuw i8, ptr %0, i64 440
  tail call void @_ZN2cv3MatD1Ev(ptr noundef nonnull align 8 dereferenceable(96) %9) #32
  %10 = getelementptr inbounds nuw i8, ptr %0, i64 344
  tail call void @_ZN2cv3MatD1Ev(ptr noundef nonnull align 8 dereferenceable(96) %10) #32
  %11 = getelementptr inbounds nuw i8, ptr %0, i64 240
  tail call void @_ZN2cv3MatD1Ev(ptr noundef nonnull align 8 dereferenceable(96) %11) #32
  %12 = getelementptr inbounds nuw i8, ptr %0, i64 144
  tail call void @_ZN2cv3MatD1Ev(ptr noundef nonnull align 8 dereferenceable(96) %12) #32
  %13 = getelementptr inbounds nuw i8, ptr %0, i64 48
  tail call void @_ZN2cv3MatD1Ev(ptr noundef nonnull align 8 dereferenceable(96) %13) #32
  ret void
}